; Function Attrs: mustprogress uwtable
define void @_ZN11OpenImageIO6v3_1_012ImageBufAlgo18fillholes_pushpullERKNS0_8ImageBufENS0_3ROIEi(ptr dead_on_unwind noalias nonnull writable sret(%"class.OpenImageIO::v3_1_0::ImageBuf") align 8 %0, ptr noundef nonnull align 8 dereferenceable(16) %1, ptr noundef readonly byval(%"struct.OpenImageIO::v3_1_0::ROI") align 8 captures(none) %2, i32 noundef %3) local_unnamed_addr #5 personality ptr @__gxx_personality_v0 {
  tail call void @_ZN11OpenImageIO6v3_1_08ImageBufC1Ev(ptr noundef nonnull align 8 dereferenceable(16) %0)
  %5 = invoke noundef zeroext i1 @_ZN11OpenImageIO6v3_1_012ImageBufAlgo18fillholes_pushpullERNS0_8ImageBufERKS2_NS0_3ROIEi(ptr noundef nonnull align 8 dereferenceable(16) %0, ptr noundef nonnull align 8 dereferenceable(16) %1, ptr noundef nonnull byval(%"struct.OpenImageIO::v3_1_0::ROI") align 8 %2, i32 noundef %3)
          to label %6 unwind label %11

6:                                                ; preds = %4
  br i1 %5, label %13, label %7

7:                                                ; preds = %6
  %8 = invoke noundef zeroext i1 @_ZNK11OpenImageIO6v3_1_08ImageBuf9has_errorEv(ptr noundef nonnull align 8 dereferenceable(16) %0)
          to label %9 unwind label %11

9:                                                ; preds = %7
  br i1 %8, label %13, label %10

10:                                               ; preds = %9
  invoke void @_ZNK11OpenImageIO6v3_1_08ImageBuf8errorfmtIA41_cJEEEvRKT_DpOT0_(ptr noundef nonnull align 8 dereferenceable(16) %0, ptr noundef nonnull align 1 dereferenceable(41) @.str.70)
          to label %13 unwind label %11

11:                                               ; preds = %10, %7, %4
  %12 = landingpad { ptr, i32 }
          cleanup
  tail call void @_ZN11OpenImageIO6v3_1_08ImageBufD1Ev(ptr noundef nonnull align 8 dereferenceable(16) %0) #28
  resume { ptr, i32 } %12

13:                                               ; preds = %6, %9, %10
  ret void
}